target datalayout = "e-m:e-p270:32:32-p271:32:32-p272:64:64-i64:64-i128:128-f80:128-n8:16:32:64-S128"
target triple = "x86_64-pc-linux-gnu"

@.str = private unnamed_addr constant [3 x i8] c"rb\00", align 1
@.str.1 = private unnamed_addr constant [25 x i8] c"Cannot open input file.\0A\00", align 1

; Function Attrs: nounwind uwtable
define ptr @Pla_ReadFile(ptr noundef %0, ptr noundef %1) #0 {
  %3 = alloca ptr, align 8
  %4 = alloca ptr, align 8
  %5 = alloca ptr, align 8
  %6 = alloca ptr, align 8
  %7 = alloca i32, align 4
  %8 = alloca i32, align 4
  %9 = alloca ptr, align 8
  %10 = alloca i32, align 4
  store ptr %0, ptr %4, align 8, !tbaa !3
  store ptr %1, ptr %5, align 8, !tbaa !8
  call void @llvm.lifetime.start.p0(i64 8, ptr %6) #10
  call void @llvm.lifetime.start.p0(i64 4, ptr %7) #10
  call void @llvm.lifetime.start.p0(i64 4, ptr %8) #10
  call void @llvm.lifetime.start.p0(i64 8, ptr %9) #10
  %11 = load ptr, ptr %4, align 8, !tbaa !3
  %12 = call noalias ptr @fopen(ptr noundef %11, ptr noundef @.str)
  store ptr %12, ptr %9, align 8, !tbaa !10
  %13 = load ptr, ptr %9, align 8, !tbaa !10
  %14 = icmp eq ptr %13, null
  br i1 %14, label %15, label %17

15:                                               ; preds = %2
  %16 = call i32 (ptr, ...) @printf(ptr noundef @.str.1)
  store ptr null, ptr %3, align 8
  store i32 1, ptr %10, align 4
  br label %57

17:                                               ; preds = %2
  %18 = load ptr, ptr %9, align 8, !tbaa !10
  %19 = call i32 @fseek(ptr noundef %18, i64 noundef 0, i32 noundef 2)
  %20 = load ptr, ptr %9, align 8, !tbaa !10
  %21 = call i64 @ftell(ptr noundef %20)
  %22 = trunc i64 %21 to i32
  store i32 %22, ptr %7, align 4, !tbaa !12
  %23 = load ptr, ptr %9, align 8, !tbaa !10
  call void @rewind(ptr noundef %23)
  %24 = load i32, ptr %7, align 4, !tbaa !12
  %25 = add nsw i32 %24, 16
  %26 = sext i32 %25 to i64
  %27 = mul i64 1, %26
  %28 = call noalias ptr @malloc(i64 noundef %27) #11
  store ptr %28, ptr %6, align 8, !tbaa !3
  %29 = load ptr, ptr %6, align 8, !tbaa !3
  %30 = getelementptr inbounds i8, ptr %29, i64 0
  store i8 10, ptr %30, align 1, !tbaa !14
  %31 = load ptr, ptr %6, align 8, !tbaa !3
  %32 = getelementptr inbounds i8, ptr %31, i64 1
  %33 = load i32, ptr %7, align 4, !tbaa !12
  %34 = sext i32 %33 to i64
  %35 = load ptr, ptr %9, align 8, !tbaa !10
  %36 = call i64 @fread(ptr noundef %32, i64 noundef %34, i64 noundef 1, ptr noundef %35)
  %37 = trunc i64 %36 to i32
  store i32 %37, ptr %8, align 4, !tbaa !12
  %38 = load ptr, ptr %9, align 8, !tbaa !10
  %39 = call i32 @fclose(ptr noundef %38)
  %40 = load ptr, ptr %6, align 8, !tbaa !3
  %41 = load i32, ptr %7, align 4, !tbaa !12
  %42 = add nsw i32 %41, 1
  %43 = sext i32 %42 to i64
  %44 = getelementptr inbounds i8, ptr %40, i64 %43
  store i8 10, ptr %44, align 1, !tbaa !14
  %45 = load ptr, ptr %6, align 8, !tbaa !3
  %46 = load i32, ptr %7, align 4, !tbaa !12
  %47 = add nsw i32 %46, 2
  %48 = sext i32 %47 to i64
  %49 = getelementptr inbounds i8, ptr %45, i64 %48
  store i8 0, ptr %49, align 1, !tbaa !14
  %50 = load ptr, ptr %6, align 8, !tbaa !3
  %51 = load i32, ptr %7, align 4, !tbaa !12
  %52 = sext i32 %51 to i64
  %53 = getelementptr inbounds i8, ptr %50, i64 %52
  %54 = getelementptr inbounds i8, ptr %53, i64 3
  %55 = load ptr, ptr %5, align 8, !tbaa !8
  store ptr %54, ptr %55, align 8, !tbaa !3
  %56 = load ptr, ptr %6, align 8, !tbaa !3
  store ptr %56, ptr %3, align 8
  store i32 1, ptr %10, align 4
  br label %57

57:                                               ; preds = %17, %15
  call void @llvm.lifetime.end.p0(i64 8, ptr %9) #10
  call void @llvm.lifetime.end.p0(i64 4, ptr %8) #10
  call void @llvm.lifetime.end.p0(i64 4, ptr %7) #10
  call void @llvm.lifetime.end.p0(i64 8, ptr %6) #10
  %58 = load ptr, ptr %3, align 8
  ret ptr %58
}