; Function Attrs: nofree nounwind uwtable
define noundef ptr @Pla_ReadFile(ptr noundef readonly captures(none) %0, ptr noundef writeonly captures(none) %1) local_unnamed_addr #0 {
  %3 = tail call noalias ptr @fopen(ptr noundef %0, ptr noundef nonnull @.str)
  %4 = icmp eq ptr %3, null
  br i1 %4, label %5, label %6

5:                                                ; preds = %2
  %puts = tail call i32 @puts(ptr nonnull dereferenceable(1) @str)
  br label %22

6:                                                ; preds = %2
  %7 = tail call i32 @fseek(ptr noundef nonnull %3, i64 noundef 0, i32 noundef 2)
  %8 = tail call i64 @ftell(ptr noundef nonnull %3)
  tail call void @rewind(ptr noundef nonnull %3)
  %9 = shl i64 %8, 32
  %sext = add i64 %9, 68719476736
  %10 = ashr exact i64 %sext, 32
  %11 = tail call noalias ptr @malloc(i64 noundef %10) #16
  store i8 10, ptr %11, align 1, !tbaa !3
  %12 = getelementptr inbounds nuw i8, ptr %11, i64 1
  %13 = ashr exact i64 %9, 32
  %14 = tail call i64 @fread(ptr noundef nonnull %12, i64 noundef %13, i64 noundef 1, ptr noundef nonnull %3)
  %15 = tail call i32 @fclose(ptr noundef nonnull %3)
  %sext21 = add i64 %9, 4294967296
  %16 = ashr exact i64 %sext21, 32
  %17 = getelementptr inbounds i8, ptr %11, i64 %16
  store i8 10, ptr %17, align 1, !tbaa !3
  %sext22 = add i64 %9, 8589934592
  %18 = ashr exact i64 %sext22, 32
  %19 = getelementptr inbounds i8, ptr %11, i64 %18
  store i8 0, ptr %19, align 1, !tbaa !3
  %20 = getelementptr inbounds i8, ptr %11, i64 %13
  %21 = getelementptr inbounds nuw i8, ptr %20, i64 3
  store ptr %21, ptr %1, align 8, !tbaa !6
  br label %22

22:                                               ; preds = %6, %5
  %.0 = phi ptr [ null, %5 ], [ %11, %6 ]
  ret ptr %.0
}